target datalayout = "e-m:e-p270:32:32-p271:32:32-p272:64:64-i64:64-i128:128-f80:128-n8:16:32:64-S128"
target triple = "x86_64-unknown-linux-gnu"

; Function Attrs: mustprogress nounwind uwtable
define dso_local noundef zeroext i1 @_ZN2EA8UnitTest11IsUserAdminEv() #1 {
entry:
  %retval = alloca i1, align 1
  %id = alloca i32, align 4
  %call = call i32 @getuid() #13
  store i32 %call, ptr %id, align 4
  %0 = load i32, ptr %id, align 4
  %cmp = icmp eq i32 %0, 0
  br i1 %cmp, label %if.then, label %if.end

if.then:                                          ; preds = %entry
  store i1 true, ptr %retval, align 1
  br label %return

if.end:                                           ; preds = %entry
  %call1 = call i32 @geteuid() #13
  store i32 %call1, ptr %id, align 4
  %1 = load i32, ptr %id, align 4
  %cmp2 = icmp eq i32 %1, 0
  store i1 %cmp2, ptr %retval, align 1
  br label %return

return:                                           ; preds = %if.end, %if.then
  %2 = load i1, ptr %retval, align 1
  ret i1 %2
}