; Function Attrs: mustprogress nounwind uwtable
define dso_local noundef zeroext i1 @_ZN2EA8UnitTest11IsUserAdminEv() local_unnamed_addr #7 {
entry:
  %call = tail call i32 @getuid() #32
  %cmp = icmp eq i32 %call, 0
  br i1 %cmp, label %return, label %if.end

if.end:                                           ; preds = %entry
  %call1 = tail call i32 @geteuid() #32
  %cmp2 = icmp eq i32 %call1, 0
  br label %return

return:                                           ; preds = %entry, %if.end
  %retval.0 = phi i1 [ %cmp2, %if.end ], [ true, %entry ]
  ret i1 %retval.0
}